target datalayout = "e-m:e-p270:32:32-p271:32:32-p272:64:64-i64:64-i128:128-f80:128-n8:16:32:64-S128"
target triple = "x86_64-pc-linux-gnu"

%"class.std::__cxx11::basic_string" = type { %"struct.std::__cxx11::basic_string<char>::_Alloc_hider", i64, %union.anon }
%"struct.std::__cxx11::basic_string<char>::_Alloc_hider" = type { ptr }
%union.anon = type { i64, [8 x i8] }
%"class.std::basic_string_view" = type { i64, ptr }

@.str.1 = private unnamed_addr constant [5 x i8] c"%03u\00", align 1

; Function Attrs: mustprogress nounwind uwtable
define linkonce_odr dso_local noundef ptr @_ZNKSt17basic_string_viewIcSt11char_traitsIcEE3endEv(ptr noundef nonnull align 8 dereferenceable(16) %0) #5 comdat align 2 {
  %2 = alloca ptr, align 8
  store ptr %0, ptr %2, align 8
  %3 = load ptr, ptr %2, align 8
  %4 = getelementptr inbounds %"class.std::basic_string_view", ptr %3, i32 0, i32 1
  %5 = load ptr, ptr %4, align 8
  %6 = getelementptr inbounds %"class.std::basic_string_view", ptr %3, i32 0, i32 0
  %7 = load i64, ptr %6, align 8
  %8 = getelementptr inbounds i8, ptr %5, i64 %7
  ret ptr %8
}

; Function Attrs: mustprogress nounwind uwtable
define linkonce_odr dso_local noundef ptr @_ZNKSt17basic_string_viewIcSt11char_traitsIcEE5beginEv(ptr noundef nonnull align 8 dereferenceable(16) %0) #5 comdat align 2 {
  %2 = alloca ptr, align 8
  store ptr %0, ptr %2, align 8
  %3 = load ptr, ptr %2, align 8
  %4 = getelementptr inbounds %"class.std::basic_string_view", ptr %3, i32 0, i32 1
  %5 = load ptr, ptr %4, align 8
  ret ptr %5
}

; Function Attrs: mustprogress nounwind uwtable
define linkonce_odr dso_local noundef i64 @_ZNKSt17basic_string_viewIcSt11char_traitsIcEE4sizeEv(ptr noundef nonnull align 8 dereferenceable(16) %0) #5 comdat align 2 {
  %2 = alloca ptr, align 8
  store ptr %0, ptr %2, align 8
  %3 = load ptr, ptr %2, align 8
  %4 = getelementptr inbounds %"class.std::basic_string_view", ptr %3, i32 0, i32 0
  %5 = load i64, ptr %4, align 8
  ret i64 %5
}

; Function Attrs: mustprogress uwtable
define dso_local void @_ZN4Luau6escapeB5cxx11ESt17basic_string_viewIcSt11char_traitsIcEEb(ptr dead_on_unwind noalias writable sret(%"class.std::__cxx11::basic_string") align 8 %0, i64 %1, ptr %2, i1 noundef zeroext %3) #0 personality ptr @__gxx_personality_v0 {
  %5 = alloca ptr, align 8
  %6 = alloca %"class.std::basic_string_view", align 8
  %7 = alloca i8, align 1
  %8 = alloca i1, align 1
  %9 = alloca ptr, align 8
  %10 = alloca i32, align 4
  %11 = alloca ptr, align 8
  %12 = alloca ptr, align 8
  %13 = alloca ptr, align 8
  %14 = alloca i8, align 1
  store ptr %0, ptr %5, align 8
  %15 = getelementptr inbounds { i64, ptr }, ptr %6, i32 0, i32 0
  store i64 %1, ptr %15, align 8
  %16 = getelementptr inbounds { i64, ptr }, ptr %6, i32 0, i32 1
  store ptr %2, ptr %16, align 8
  %17 = zext i1 %3 to i8
  store i8 %17, ptr %7, align 1
  store i1 false, ptr %8, align 1
  call void @_ZNSt7__cxx1112basic_stringIcSt11char_traitsIcESaIcEEC1Ev(ptr noundef nonnull align 8 dereferenceable(32) %0) #12
  %18 = call noundef i64 @_ZNKSt17basic_string_viewIcSt11char_traitsIcEE4sizeEv(ptr noundef nonnull align 8 dereferenceable(16) %6) #12
  %19 = add i64 %18, 50
  invoke void @_ZNSt7__cxx1112basic_stringIcSt11char_traitsIcESaIcEE7reserveEm(ptr noundef nonnull align 8 dereferenceable(32) %0, i64 noundef %19)
          to label %20 unwind label %59

20:                                               ; preds = %4
  store ptr %6, ptr %11, align 8
  %21 = load ptr, ptr %11, align 8
  %22 = call noundef ptr @_ZNKSt17basic_string_viewIcSt11char_traitsIcEE5beginEv(ptr noundef nonnull align 8 dereferenceable(16) %21) #12
  store ptr %22, ptr %12, align 8
  %23 = load ptr, ptr %11, align 8
  %24 = call noundef ptr @_ZNKSt17basic_string_viewIcSt11char_traitsIcEE3endEv(ptr noundef nonnull align 8 dereferenceable(16) %23) #12
  store ptr %24, ptr %13, align 8
  br label %25

25:                                               ; preds = %119, %20
  %26 = load ptr, ptr %12, align 8
  %27 = load ptr, ptr %13, align 8
  %28 = icmp ne ptr %26, %27
  br i1 %28, label %29, label %122

29:                                               ; preds = %25
  %30 = load ptr, ptr %12, align 8
  %31 = load i8, ptr %30, align 1
  store i8 %31, ptr %14, align 1
  %32 = load i8, ptr %14, align 1
  %33 = zext i8 %32 to i32
  %34 = icmp sge i32 %33, 32
  br i1 %34, label %35, label %63

35:                                               ; preds = %29
  %36 = load i8, ptr %14, align 1
  %37 = zext i8 %36 to i32
  %38 = icmp ne i32 %37, 92
  br i1 %38, label %39, label %63

39:                                               ; preds = %35
  %40 = load i8, ptr %14, align 1
  %41 = zext i8 %40 to i32
  %42 = icmp ne i32 %41, 39
  br i1 %42, label %43, label %63

43:                                               ; preds = %39
  %44 = load i8, ptr %14, align 1
  %45 = zext i8 %44 to i32
  %46 = icmp ne i32 %45, 34
  br i1 %46, label %47, label %63

47:                                               ; preds = %43
  %48 = load i8, ptr %14, align 1
  %49 = zext i8 %48 to i32
  %50 = icmp ne i32 %49, 96
  br i1 %50, label %51, label %63

51:                                               ; preds = %47
  %52 = load i8, ptr %14, align 1
  %53 = zext i8 %52 to i32
  %54 = icmp ne i32 %53, 123
  br i1 %54, label %55, label %63

55:                                               ; preds = %51
  %56 = load i8, ptr %14, align 1
  %57 = invoke noundef nonnull align 8 dereferenceable(32) ptr @_ZNSt7__cxx1112basic_stringIcSt11char_traitsIcESaIcEEpLEc(ptr noundef nonnull align 8 dereferenceable(32) %0, i8 noundef signext %56)
          to label %58 unwind label %59

58:                                               ; preds = %55
  br label %118

59:                                               ; preds = %113, %110, %107, %104, %101, %98, %95, %92, %89, %86, %83, %76, %63, %55, %4
  %60 = landingpad { ptr, i32 }
          cleanup
  %61 = extractvalue { ptr, i32 } %60, 0
  store ptr %61, ptr %9, align 8
  %62 = extractvalue { ptr, i32 } %60, 1
  store i32 %62, ptr %10, align 4
  call void @_ZNSt7__cxx1112basic_stringIcSt11char_traitsIcESaIcEED1Ev(ptr noundef nonnull align 8 dereferenceable(32) %0) #12
  br label %126

63:                                               ; preds = %51, %47, %43, %39, %35, %29
  %64 = invoke noundef nonnull align 8 dereferenceable(32) ptr @_ZNSt7__cxx1112basic_stringIcSt11char_traitsIcESaIcEEpLEc(ptr noundef nonnull align 8 dereferenceable(32) %0, i8 noundef signext 92)
          to label %65 unwind label %59

65:                                               ; preds = %63
  %66 = load i8, ptr %7, align 1
  %67 = trunc i8 %66 to i1
  br i1 %67, label %68, label %80

68:                                               ; preds = %65
  %69 = load i8, ptr %14, align 1
  %70 = zext i8 %69 to i32
  %71 = icmp eq i32 %70, 96
  br i1 %71, label %76, label %72

72:                                               ; preds = %68
  %73 = load i8, ptr %14, align 1
  %74 = zext i8 %73 to i32
  %75 = icmp eq i32 %74, 123
  br i1 %75, label %76, label %80

76:                                               ; preds = %72, %68
  %77 = load i8, ptr %14, align 1
  %78 = invoke noundef nonnull align 8 dereferenceable(32) ptr @_ZNSt7__cxx1112basic_stringIcSt11char_traitsIcESaIcEEpLEc(ptr noundef nonnull align 8 dereferenceable(32) %0, i8 noundef signext %77)
          to label %79 unwind label %59

79:                                               ; preds = %76
  br label %119

80:                                               ; preds = %72, %65
  %81 = load i8, ptr %14, align 1
  %82 = zext i8 %81 to i32
  switch i32 %82, label %113 [
    i32 7, label %83
    i32 8, label %86
    i32 12, label %89
    i32 10, label %92
    i32 13, label %95
    i32 9, label %98
    i32 11, label %101
    i32 39, label %104
    i32 34, label %107
    i32 92, label %110
  ]

83:                                               ; preds = %80
  %84 = invoke noundef nonnull align 8 dereferenceable(32) ptr @_ZNSt7__cxx1112basic_stringIcSt11char_traitsIcESaIcEEpLEc(ptr noundef nonnull align 8 dereferenceable(32) %0, i8 noundef signext 97)
          to label %85 unwind label %59

85:                                               ; preds = %83
  br label %117

86:                                               ; preds = %80
  %87 = invoke noundef nonnull align 8 dereferenceable(32) ptr @_ZNSt7__cxx1112basic_stringIcSt11char_traitsIcESaIcEEpLEc(ptr noundef nonnull align 8 dereferenceable(32) %0, i8 noundef signext 98)
          to label %88 unwind label %59

88:                                               ; preds = %86
  br label %117

89:                                               ; preds = %80
  %90 = invoke noundef nonnull align 8 dereferenceable(32) ptr @_ZNSt7__cxx1112basic_stringIcSt11char_traitsIcESaIcEEpLEc(ptr noundef nonnull align 8 dereferenceable(32) %0, i8 noundef signext 102)
          to label %91 unwind label %59

91:                                               ; preds = %89
  br label %117

92:                                               ; preds = %80
  %93 = invoke noundef nonnull align 8 dereferenceable(32) ptr @_ZNSt7__cxx1112basic_stringIcSt11char_traitsIcESaIcEEpLEc(ptr noundef nonnull align 8 dereferenceable(32) %0, i8 noundef signext 110)
          to label %94 unwind label %59

94:                                               ; preds = %92
  br label %117

95:                                               ; preds = %80
  %96 = invoke noundef nonnull align 8 dereferenceable(32) ptr @_ZNSt7__cxx1112basic_stringIcSt11char_traitsIcESaIcEEpLEc(ptr noundef nonnull align 8 dereferenceable(32) %0, i8 noundef signext 114)
          to label %97 unwind label %59

97:                                               ; preds = %95
  br label %117

98:                                               ; preds = %80
  %99 = invoke noundef nonnull align 8 dereferenceable(32) ptr @_ZNSt7__cxx1112basic_stringIcSt11char_traitsIcESaIcEEpLEc(ptr noundef nonnull align 8 dereferenceable(32) %0, i8 noundef signext 116)
          to label %100 unwind label %59

100:                                              ; preds = %98
  br label %117

101:                                              ; preds = %80
  %102 = invoke noundef nonnull align 8 dereferenceable(32) ptr @_ZNSt7__cxx1112basic_stringIcSt11char_traitsIcESaIcEEpLEc(ptr noundef nonnull align 8 dereferenceable(32) %0, i8 noundef signext 118)
          to label %103 unwind label %59

103:                                              ; preds = %101
  br label %117

104:                                              ; preds = %80
  %105 = invoke noundef nonnull align 8 dereferenceable(32) ptr @_ZNSt7__cxx1112basic_stringIcSt11char_traitsIcESaIcEEpLEc(ptr noundef nonnull align 8 dereferenceable(32) %0, i8 noundef signext 39)
          to label %106 unwind label %59

106:                                              ; preds = %104
  br label %117

107:                                              ; preds = %80
  %108 = invoke noundef nonnull align 8 dereferenceable(32) ptr @_ZNSt7__cxx1112basic_stringIcSt11char_traitsIcESaIcEEpLEc(ptr noundef nonnull align 8 dereferenceable(32) %0, i8 noundef signext 34)
          to label %109 unwind label %59

109:                                              ; preds = %107
  br label %117

110:                                              ; preds = %80
  %111 = invoke noundef nonnull align 8 dereferenceable(32) ptr @_ZNSt7__cxx1112basic_stringIcSt11char_traitsIcESaIcEEpLEc(ptr noundef nonnull align 8 dereferenceable(32) %0, i8 noundef signext 92)
          to label %112 unwind label %59

112:                                              ; preds = %110
  br label %117

113:                                              ; preds = %80
  %114 = load i8, ptr %14, align 1
  %115 = zext i8 %114 to i32
  invoke void (ptr, ptr, ...) @_ZN4Luau12formatAppendERNSt7__cxx1112basic_stringIcSt11char_traitsIcESaIcEEEPKcz(ptr noundef nonnull align 8 dereferenceable(32) %0, ptr noundef @.str.1, i32 noundef %115)
          to label %116 unwind label %59

116:                                              ; preds = %113
  br label %117

117:                                              ; preds = %116, %112, %109, %106, %103, %100, %97, %94, %91, %88, %85
  br label %118

118:                                              ; preds = %117, %58
  br label %119

119:                                              ; preds = %118, %79
  %120 = load ptr, ptr %12, align 8
  %121 = getelementptr inbounds i8, ptr %120, i32 1
  store ptr %121, ptr %12, align 8
  br label %25

122:                                              ; preds = %25
  store i1 true, ptr %8, align 1
  %123 = load i1, ptr %8, align 1
  br i1 %123, label %125, label %124

124:                                              ; preds = %122
  call void @_ZNSt7__cxx1112basic_stringIcSt11char_traitsIcESaIcEED1Ev(ptr noundef nonnull align 8 dereferenceable(32) %0) #12
  br label %125

125:                                              ; preds = %124, %122
  ret void

126:                                              ; preds = %59
  %127 = load ptr, ptr %9, align 8
  %128 = load i32, ptr %10, align 4
  %129 = insertvalue { ptr, i32 } poison, ptr %127, 0
  %130 = insertvalue { ptr, i32 } %129, i32 %128, 1
  resume { ptr, i32 } %130
}