; Function Attrs: mustprogress uwtable
define dso_local void @_ZN4Luau6escapeB5cxx11ESt17basic_string_viewIcSt11char_traitsIcEEb(ptr dead_on_unwind noalias nonnull writable sret(%"class.std::__cxx11::basic_string") align 8 %0, i64 %1, ptr readonly %2, i1 noundef zeroext %3) local_unnamed_addr #0 personality ptr @__gxx_personality_v0 {
  tail call void @_ZNSt7__cxx1112basic_stringIcSt11char_traitsIcESaIcEEC1Ev(ptr noundef nonnull align 8 dereferenceable(32) %0) #20
  %5 = add i64 %1, 50
  invoke void @_ZNSt7__cxx1112basic_stringIcSt11char_traitsIcESaIcEE7reserveEm(ptr noundef nonnull align 8 dereferenceable(32) %0, i64 noundef %5)
          to label %6 unwind label %.loopexit.split-lp

6:                                                ; preds = %4
  %7 = getelementptr inbounds i8, ptr %2, i64 %1
  %.not40 = icmp eq i64 %1, 0
  br i1 %.not40, label %._crit_edge, label %.lr.ph

.lr.ph:                                           ; preds = %6
  br i1 %3, label %.lr.ph.split.us, label %.lr.ph.split

.lr.ph.split.us:                                  ; preds = %.lr.ph, %24
  %.041.us = phi ptr [ %25, %24 ], [ %2, %.lr.ph ]
  %8 = load i8, ptr %.041.us, align 1
  %.fr.us = freeze i8 %8
  %9 = zext i8 %.fr.us to i32
  %10 = icmp ugt i8 %.fr.us, 31
  br i1 %10, label %switch.early.test.us, label %11

switch.early.test.us:                             ; preds = %.lr.ph.split.us
  switch i8 %.fr.us, label %.invoke [
    i8 123, label %11
    i8 96, label %11
    i8 92, label %11
    i8 39, label %11
    i8 34, label %11
  ]

11:                                               ; preds = %switch.early.test.us, %switch.early.test.us, %switch.early.test.us, %switch.early.test.us, %switch.early.test.us, %.lr.ph.split.us
  %12 = invoke noundef nonnull align 8 dereferenceable(32) ptr @_ZNSt7__cxx1112basic_stringIcSt11char_traitsIcESaIcEEpLEc(ptr noundef nonnull align 8 dereferenceable(32) %0, i8 noundef signext 92)
          to label %13 unwind label %.loopexit.split.us

13:                                               ; preds = %11
  switch i8 %.fr.us, label %21 [
    i8 123, label %.invoke
    i8 96, label %.invoke
    i8 7, label %20
    i8 8, label %19
    i8 12, label %18
    i8 10, label %17
    i8 13, label %16
    i8 9, label %15
    i8 11, label %14
    i8 39, label %.invoke
    i8 34, label %.invoke
    i8 92, label %.invoke
  ]

14:                                               ; preds = %13
  br label %.invoke

15:                                               ; preds = %13
  br label %.invoke

16:                                               ; preds = %13
  br label %.invoke

17:                                               ; preds = %13
  br label %.invoke

18:                                               ; preds = %13
  br label %.invoke

19:                                               ; preds = %13
  br label %.invoke

20:                                               ; preds = %13
  br label %.invoke

21:                                               ; preds = %13
  invoke void (ptr, ptr, ...) @_ZN4Luau12formatAppendERNSt7__cxx1112basic_stringIcSt11char_traitsIcESaIcEEEPKcz(ptr noundef nonnull align 8 dereferenceable(32) %0, ptr noundef nonnull @.str.1, i32 noundef %9)
          to label %24 unwind label %.loopexit.split.us

.invoke:                                          ; preds = %13, %13, %13, %13, %switch.early.test.us, %13, %14, %15, %16, %17, %18, %19, %20
  %22 = phi i8 [ 97, %20 ], [ 98, %19 ], [ 102, %18 ], [ 110, %17 ], [ 114, %16 ], [ 116, %15 ], [ 118, %14 ], [ %.fr.us, %13 ], [ %.fr.us, %switch.early.test.us ], [ %.fr.us, %13 ], [ %.fr.us, %13 ], [ %.fr.us, %13 ], [ %.fr.us, %13 ]
  %23 = invoke noundef nonnull align 8 dereferenceable(32) ptr @_ZNSt7__cxx1112basic_stringIcSt11char_traitsIcESaIcEEpLEc(ptr noundef nonnull align 8 dereferenceable(32) %0, i8 noundef signext %22)
          to label %24 unwind label %.loopexit.split.us

24:                                               ; preds = %.invoke, %21
  %25 = getelementptr inbounds i8, ptr %.041.us, i64 1
  %.not.us = icmp eq ptr %25, %7
  br i1 %.not.us, label %._crit_edge, label %.lr.ph.split.us

.loopexit.split.us:                               ; preds = %.invoke, %21, %11
  %lpad.loopexit.us = landingpad { ptr, i32 }
          cleanup
  br label %.loopexit

.lr.ph.split:                                     ; preds = %.lr.ph, %44
  %.041 = phi ptr [ %45, %44 ], [ %2, %.lr.ph ]
  %26 = load i8, ptr %.041, align 1
  %.fr = freeze i8 %26
  %27 = zext i8 %.fr to i32
  %28 = icmp ugt i8 %.fr, 31
  br i1 %28, label %switch.early.test, label %31

switch.early.test:                                ; preds = %.lr.ph.split
  switch i8 %.fr, label %.invoke44 [
    i8 123, label %31
    i8 96, label %31
    i8 92, label %31
    i8 39, label %31
    i8 34, label %31
  ]

.invoke44:                                        ; preds = %switch.early.test, %33, %42, %41, %40, %39, %38, %37, %36, %35, %34
  %29 = phi i8 [ 98, %34 ], [ 102, %35 ], [ 110, %36 ], [ 114, %37 ], [ 116, %38 ], [ 118, %39 ], [ %.fr, %40 ], [ %.fr, %41 ], [ %.fr, %42 ], [ 97, %33 ], [ %.fr, %switch.early.test ]
  %30 = invoke noundef nonnull align 8 dereferenceable(32) ptr @_ZNSt7__cxx1112basic_stringIcSt11char_traitsIcESaIcEEpLEc(ptr noundef nonnull align 8 dereferenceable(32) %0, i8 noundef signext %29)
          to label %44 unwind label %.loopexit.split

.loopexit.split:                                  ; preds = %.invoke44, %31, %43
  %lpad.loopexit = landingpad { ptr, i32 }
          cleanup
  br label %.loopexit

.loopexit.split-lp:                               ; preds = %4
  %lpad.loopexit.split-lp = landingpad { ptr, i32 }
          cleanup
  br label %.loopexit

.loopexit:                                        ; preds = %.loopexit.split, %.loopexit.split.us, %.loopexit.split-lp
  %lpad.phi = phi { ptr, i32 } [ %lpad.loopexit.split-lp, %.loopexit.split-lp ], [ %lpad.loopexit, %.loopexit.split ], [ %lpad.loopexit.us, %.loopexit.split.us ]
  tail call void @_ZNSt7__cxx1112basic_stringIcSt11char_traitsIcESaIcEED1Ev(ptr noundef nonnull align 8 dereferenceable(32) %0) #20
  resume { ptr, i32 } %lpad.phi

31:                                               ; preds = %switch.early.test, %switch.early.test, %switch.early.test, %switch.early.test, %switch.early.test, %.lr.ph.split
  %32 = invoke noundef nonnull align 8 dereferenceable(32) ptr @_ZNSt7__cxx1112basic_stringIcSt11char_traitsIcESaIcEEpLEc(ptr noundef nonnull align 8 dereferenceable(32) %0, i8 noundef signext 92)
          to label %33 unwind label %.loopexit.split

33:                                               ; preds = %31
  switch i8 %.fr, label %43 [
    i8 7, label %.invoke44
    i8 8, label %34
    i8 12, label %35
    i8 10, label %36
    i8 13, label %37
    i8 9, label %38
    i8 11, label %39
    i8 39, label %40
    i8 34, label %41
    i8 92, label %42
  ]

34:                                               ; preds = %33
  br label %.invoke44

35:                                               ; preds = %33
  br label %.invoke44

36:                                               ; preds = %33
  br label %.invoke44

37:                                               ; preds = %33
  br label %.invoke44

38:                                               ; preds = %33
  br label %.invoke44

39:                                               ; preds = %33
  br label %.invoke44

40:                                               ; preds = %33
  br label %.invoke44

41:                                               ; preds = %33
  br label %.invoke44

42:                                               ; preds = %33
  br label %.invoke44

43:                                               ; preds = %33
  invoke void (ptr, ptr, ...) @_ZN4Luau12formatAppendERNSt7__cxx1112basic_stringIcSt11char_traitsIcESaIcEEEPKcz(ptr noundef nonnull align 8 dereferenceable(32) %0, ptr noundef nonnull @.str.1, i32 noundef %27)
          to label %44 unwind label %.loopexit.split

44:                                               ; preds = %.invoke44, %43
  %45 = getelementptr inbounds i8, ptr %.041, i64 1
  %.not = icmp eq ptr %45, %7
  br i1 %.not, label %._crit_edge, label %.lr.ph.split

._crit_edge:                                      ; preds = %44, %24, %6
  ret void
}